; Function Attrs: mustprogress nofree norecurse nosync nounwind willreturn memory(argmem: readwrite) uwtable
define internal void @_get_line_bounds(ptr nocapture noundef readonly %0, ptr nocapture noundef writeonly %1) #5 {
  %3 = getelementptr inbounds nuw i8, ptr %0, i64 576
  %4 = load float, ptr %3, align 8, !tbaa !182
  %5 = fptosi float %4 to i32
  store i32 %5, ptr %1, align 4, !tbaa !157
  %6 = getelementptr inbounds nuw i8, ptr %0, i64 580
  %7 = load float, ptr %6, align 4, !tbaa !183
  %8 = fptosi float %7 to i32
  %9 = getelementptr inbounds nuw i8, ptr %1, i64 4
  store i32 %8, ptr %9, align 4, !tbaa !158
  %10 = getelementptr inbounds nuw i8, ptr %0, i64 584
  %11 = load float, ptr %10, align 8, !tbaa !184
  %12 = fptosi float %11 to i32
  %13 = getelementptr inbounds nuw i8, ptr %1, i64 8
  store i32 %12, ptr %13, align 4, !tbaa !160
  %14 = getelementptr inbounds nuw i8, ptr %0, i64 588
  %15 = load float, ptr %14, align 4, !tbaa !185
  %16 = fptosi float %15 to i32
  %17 = getelementptr inbounds nuw i8, ptr %1, i64 12
  store i32 %16, ptr %17, align 4, !tbaa !162
  ret void
}